; Function Attrs: nounwind uwtable
define dso_local ptr @CachedPlanGetTargetList(ptr noundef %0, ptr noundef %1) local_unnamed_addr #0 {
  %3 = getelementptr inbounds nuw i8, ptr %0, i64 72
  %4 = load ptr, ptr %3, align 8
  %5 = icmp eq ptr %4, null
  br i1 %5, label %24, label %6

6:                                                ; preds = %2
  %7 = tail call fastcc ptr @RevalidateCachedQuery(ptr noundef nonnull %0, ptr noundef %1)
  %8 = getelementptr inbounds nuw i8, ptr %0, i64 88
  %9 = load ptr, ptr %8, align 8
  %.not.i = icmp eq ptr %9, null
  br i1 %.not.i, label %QueryListGetPrimaryStmt.exit, label %.lr.ph.i

.lr.ph.i:                                         ; preds = %6
  %10 = getelementptr inbounds nuw i8, ptr %9, i64 4
  %11 = load i32, ptr %10, align 4
  %12 = icmp sgt i32 %11, 0
  br i1 %12, label %.lr.ph30.i, label %QueryListGetPrimaryStmt.exit

.lr.ph30.i:                                       ; preds = %.lr.ph.i
  %13 = getelementptr inbounds nuw i8, ptr %9, i64 16
  %14 = load ptr, ptr %13, align 8
  %wide.trip.count.i = zext nneg i32 %11 to i64
  br label %16

15:                                               ; preds = %16
  %indvars.iv.next.i = add nuw nsw i64 %indvars.iv.i, 1
  %exitcond.not.i = icmp eq i64 %indvars.iv.next.i, %wide.trip.count.i
  br i1 %exitcond.not.i, label %QueryListGetPrimaryStmt.exit, label %16

16:                                               ; preds = %15, %.lr.ph30.i
  %indvars.iv.i = phi i64 [ 0, %.lr.ph30.i ], [ %indvars.iv.next.i, %15 ]
  %17 = getelementptr inbounds nuw %union.ListCell, ptr %14, i64 %indvars.iv.i
  %18 = load ptr, ptr %17, align 8
  %19 = getelementptr inbounds nuw i8, ptr %18, i64 24
  %20 = load i8, ptr %19, align 8, !range !4, !noundef !5
  %21 = trunc nuw i8 %20 to i1
  br i1 %21, label %QueryListGetPrimaryStmt.exit, label %15

QueryListGetPrimaryStmt.exit:                     ; preds = %15, %16, %6, %.lr.ph.i
  %22 = phi ptr [ null, %6 ], [ null, %.lr.ph.i ], [ %18, %16 ], [ null, %15 ]
  %23 = tail call ptr @FetchStatementTargetList(ptr noundef %22) #9
  br label %24

24:                                               ; preds = %2, %QueryListGetPrimaryStmt.exit
  %.0 = phi ptr [ %23, %QueryListGetPrimaryStmt.exit ], [ null, %2 ]
  ret ptr %.0
}